; Function Attrs: mustprogress uwtable
define hidden void @_ZN4cvc58internal6theory17SimpleTheoryLemmaC2ENS1_11InferenceIdENS0_12NodeTemplateILb1EEENS1_13LemmaPropertyEPNS0_14ProofGeneratorE(ptr nocapture noundef nonnull writeonly align 8 dereferenceable(40) %this, i32 noundef %id, ptr nocapture noundef readonly %n, i32 noundef %p, ptr noundef %pg) unnamed_addr #3 align 2 personality ptr @__gxx_personality_v0 {
entry:
  %d_id.i = getelementptr inbounds i8, ptr %this, i64 8
  store i32 %id, ptr %d_id.i, align 8
  store ptr getelementptr inbounds ({ [6 x ptr] }, ptr @_ZTVN4cvc58internal6theory17SimpleTheoryLemmaE, i64 0, i32 0, i64 2), ptr %this, align 8
  %d_node = getelementptr inbounds i8, ptr %this, i64 16
  %0 = load ptr, ptr %n, align 8
  store ptr %0, ptr %d_node, align 8
  %bf.load.i.i = load i64, ptr %0, align 8
  %bf.lshr.i.i = lshr i64 %bf.load.i.i, 40
  %1 = trunc i64 %bf.lshr.i.i to i32
  %bf.cast.i.i = and i32 %1, 1048575
  %cmp.i.i = icmp ult i32 %bf.cast.i.i, 1048574
  br i1 %cmp.i.i, label %if.then.i.i, label %if.else.i.i

if.then.i.i:                                      ; preds = %entry
  %bf.value.i.i = add i64 %bf.load.i.i, 1099511627776
  %bf.shl.i.i = and i64 %bf.value.i.i, 1152920405095219200
  %bf.clear7.i.i = and i64 %bf.load.i.i, -1152920405095219201
  %bf.set.i.i = or disjoint i64 %bf.shl.i.i, %bf.clear7.i.i
  store i64 %bf.set.i.i, ptr %0, align 8
  br label %invoke.cont

if.else.i.i:                                      ; preds = %entry
  %cmp12.i.i = icmp eq i32 %bf.cast.i.i, 1048574
  br i1 %cmp12.i.i, label %if.then13.i.i, label %invoke.cont

if.then13.i.i:                                    ; preds = %if.else.i.i
  %bf.set23.i.i = or i64 %bf.load.i.i, 1152920405095219200
  store i64 %bf.set23.i.i, ptr %0, align 8
  tail call void @_ZN4cvc58internal4expr9NodeValue20markRefCountMaxedOutEv(ptr noundef nonnull align 8 dereferenceable(16) %0)
  br label %invoke.cont

invoke.cont:                                      ; preds = %if.then13.i.i, %if.else.i.i, %if.then.i.i
  %d_property = getelementptr inbounds i8, ptr %this, i64 24
  store i32 %p, ptr %d_property, align 8
  %d_pg = getelementptr inbounds i8, ptr %this, i64 32
  store ptr %pg, ptr %d_pg, align 8
  ret void
}